target datalayout = "e-m:e-p270:32:32-p271:32:32-p272:64:64-i64:64-i128:128-f80:128-n8:16:32:64-S128"
target triple = "x86_64-pc-linux-gnu"

%struct._gvsp_packet_info = type { i32, i8, i16, i16, i64, i32, i32, i32, i32, i32 }

@hf_gvsp_payloaddata = internal global i32 0, align 4
@hf_gvsp_zoneinfo = internal global i32 0, align 4
@hf_gvsp_addressoffset = internal global i32 0, align 4
@ett_gvsp_zoneinfo = internal global i32 0, align 4
@zoneinfo_fields = internal constant [3 x ptr] [ptr @hf_gvsp_zoneid, ptr @hf_gvsp_endofzone, ptr null], align 16

; Function Attrs: nounwind null_pointer_is_valid sspstrong uwtable
define internal zeroext i1 @status_with_payload(ptr noundef %0) #6 {
  %2 = alloca ptr, align 8
  store ptr %0, ptr %2, align 8
  %3 = load ptr, ptr %2, align 8
  %4 = getelementptr inbounds nuw %struct._gvsp_packet_info, ptr %3, i32 0, i32 2
  %5 = load i16, ptr %4, align 2
  %6 = zext i16 %5 to i32
  %7 = icmp eq i32 %6, 0
  br i1 %7, label %21, label %8

8:                                                ; preds = %1
  %9 = load ptr, ptr %2, align 8
  %10 = getelementptr inbounds nuw %struct._gvsp_packet_info, ptr %9, i32 0, i32 6
  %11 = load i32, ptr %10, align 4
  %12 = icmp ne i32 %11, 0
  br i1 %12, label %13, label %19

13:                                               ; preds = %8
  %14 = load ptr, ptr %2, align 8
  %15 = getelementptr inbounds nuw %struct._gvsp_packet_info, ptr %14, i32 0, i32 2
  %16 = load i16, ptr %15, align 2
  %17 = zext i16 %16 to i32
  %18 = icmp eq i32 %17, 256
  br label %19

19:                                               ; preds = %13, %8
  %20 = phi i1 [ false, %8 ], [ %18, %13 ]
  br label %21

21:                                               ; preds = %19, %1
  %22 = phi i1 [ true, %1 ], [ %20, %19 ]
  ret i1 %22
}

; Function Attrs: null_pointer_is_valid sspstrong uwtable
define internal void @dissect_packet_payload_multizone(ptr noundef %0, ptr noundef %1, ptr noundef %2, i32 noundef %3, ptr noundef %4) #0 {
  %6 = alloca ptr, align 8
  %7 = alloca ptr, align 8
  %8 = alloca ptr, align 8
  %9 = alloca i32, align 4
  %10 = alloca ptr, align 8
  store ptr %0, ptr %6, align 8
  store ptr %1, ptr %7, align 8
  store ptr %2, ptr %8, align 8
  store i32 %3, ptr %9, align 4
  store ptr %4, ptr %10, align 8
  %11 = load ptr, ptr %10, align 8
  %12 = call zeroext i1 @status_with_payload(ptr noundef %11)
  br i1 %12, label %13, label %38

13:                                               ; preds = %5
  %14 = load ptr, ptr %7, align 8
  %15 = load i32, ptr %9, align 4
  %16 = call i32 @tvb_reported_length_remaining(ptr noundef %14, i32 noundef %15)
  %17 = icmp ne i32 %16, 0
  br i1 %17, label %18, label %38

18:                                               ; preds = %13
  %19 = load ptr, ptr %6, align 8
  %20 = load ptr, ptr %7, align 8
  %21 = load i32, ptr %9, align 4
  %22 = add i32 %21, 1
  %23 = load i32, ptr @hf_gvsp_zoneinfo, align 4
  %24 = load i32, ptr @ett_gvsp_zoneinfo, align 4
  %25 = call ptr @proto_tree_add_bitmask(ptr noundef %19, ptr noundef %20, i32 noundef %22, i32 noundef %23, i32 noundef %24, ptr noundef @zoneinfo_fields, i32 noundef 0)
  %26 = load ptr, ptr %6, align 8
  %27 = load i32, ptr @hf_gvsp_addressoffset, align 4
  %28 = load ptr, ptr %7, align 8
  %29 = load i32, ptr %9, align 4
  %30 = add i32 %29, 2
  %31 = call ptr @proto_tree_add_item(ptr noundef %26, i32 noundef %27, ptr noundef %28, i32 noundef %30, i32 noundef 6, i32 noundef 0)
  %32 = load ptr, ptr %6, align 8
  %33 = load i32, ptr @hf_gvsp_payloaddata, align 4
  %34 = load ptr, ptr %7, align 8
  %35 = load i32, ptr %9, align 4
  %36 = add i32 %35, 8
  %37 = call ptr @proto_tree_add_item(ptr noundef %32, i32 noundef %33, ptr noundef %34, i32 noundef %36, i32 noundef -1, i32 noundef 0)
  br label %38

38:                                               ; preds = %18, %13, %5
  ret void
}