; Function Attrs: null_pointer_is_valid sspstrong uwtable
define internal fastcc void @dissect_packet_payload_multizone(ptr noundef %0, ptr noundef %1, i32 noundef %2, ptr noundef readonly captures(none) %3) unnamed_addr #0 {
  %5 = getelementptr inbounds nuw i8, ptr %3, i64 6
  %6 = load i16, ptr %5, align 2
  %7 = icmp eq i16 %6, 0
  br i1 %7, label %status_with_payload.exit.thread, label %status_with_payload.exit

status_with_payload.exit:                         ; preds = %4
  %8 = getelementptr inbounds nuw i8, ptr %3, i64 28
  %9 = load i32, ptr %8, align 4
  %.not.i = icmp ne i32 %9, 0
  %10 = icmp eq i16 %6, 256
  %spec.select.i = and i1 %10, %.not.i
  br i1 %spec.select.i, label %status_with_payload.exit.thread, label %23

status_with_payload.exit.thread:                  ; preds = %4, %status_with_payload.exit
  %11 = tail call i32 @tvb_reported_length_remaining(ptr noundef %1, i32 noundef %2)
  %.not = icmp eq i32 %11, 0
  br i1 %.not, label %23, label %12

12:                                               ; preds = %status_with_payload.exit.thread
  %13 = add i32 %2, 1
  %14 = load i32, ptr @hf_gvsp_zoneinfo, align 4
  %15 = load i32, ptr @ett_gvsp_zoneinfo, align 4
  %16 = tail call ptr @proto_tree_add_bitmask(ptr noundef %0, ptr noundef %1, i32 noundef %13, i32 noundef %14, i32 noundef %15, ptr noundef nonnull @zoneinfo_fields, i32 noundef 0)
  %17 = load i32, ptr @hf_gvsp_addressoffset, align 4
  %18 = add i32 %2, 2
  %19 = tail call ptr @proto_tree_add_item(ptr noundef %0, i32 noundef %17, ptr noundef %1, i32 noundef %18, i32 noundef 6, i32 noundef 0)
  %20 = load i32, ptr @hf_gvsp_payloaddata, align 4
  %21 = add i32 %2, 8
  %22 = tail call ptr @proto_tree_add_item(ptr noundef %0, i32 noundef %20, ptr noundef %1, i32 noundef %21, i32 noundef -1, i32 noundef 0)
  br label %23

23:                                               ; preds = %12, %status_with_payload.exit.thread, %status_with_payload.exit
  ret void
}